target datalayout = "e-m:e-p270:32:32-p271:32:32-p272:64:64-i64:64-i128:128-f80:128-n8:16:32:64-S128"
target triple = "x86_64-pc-linux-gnu"

%struct._value_string = type { i32, ptr }
%struct.evtype_info = type { ptr, ptr, ptr, ptr, ptr }

@hf_ipmi_se_10_logging_disable = internal global i32 0, align 4
@hf_ipmi_se_10_event = internal global i32 0, align 4
@hf_ipmi_se_10_event_offset = internal global i32 0, align 4
@hf_ipmi_se_10_sel_filled = internal global i32 0, align 4
@ett_ipmi_se_evt_evd_byte3 = internal global i32 0, align 4
@.str.649 = private unnamed_addr constant [8 x i8] c"Unknown\00", align 1
@.str.783 = private unnamed_addr constant [12 x i8] c"%s (0x%02x)\00", align 1
@et_empty = internal constant [1 x %struct._value_string] zeroinitializer, align 16
@ssi_10_saveptr = internal global ptr null, align 8
@.str.906 = private unnamed_addr constant [23 x i8] c"Logging details/Offset\00", align 1

; Function Attrs: null_pointer_is_valid sspstrong uwtable
define internal zeroext i1 @ssi_10_3(ptr noundef %0, ptr noundef %1, ptr noundef %2, i32 noundef %3, i32 noundef %4, i32 noundef %5) #0 {
  %7 = alloca i1, align 1
  %8 = alloca ptr, align 8
  %9 = alloca ptr, align 8
  %10 = alloca ptr, align 8
  %11 = alloca i32, align 4
  %12 = alloca i32, align 4
  %13 = alloca i32, align 4
  %14 = alloca ptr, align 8
  %15 = alloca ptr, align 8
  %16 = alloca i32, align 4
  store ptr %0, ptr %8, align 8
  store ptr %1, ptr %9, align 8
  store ptr %2, ptr %10, align 8
  store i32 %3, ptr %11, align 4
  store i32 %4, ptr %12, align 4
  store i32 %5, ptr %13, align 4
  call void @llvm.lifetime.start.p0(i64 8, ptr %14) #5
  call void @llvm.lifetime.start.p0(i64 8, ptr %15) #5
  %17 = load i32, ptr %11, align 4
  %18 = icmp eq i32 %17, 3
  br i1 %18, label %19, label %61

19:                                               ; preds = %6
  %20 = load i32, ptr %12, align 4
  %21 = icmp eq i32 %20, 1
  br i1 %21, label %22, label %61

22:                                               ; preds = %19
  %23 = load ptr, ptr @ssi_10_saveptr, align 8
  %24 = icmp ne ptr %23, null
  br i1 %24, label %26, label %25

25:                                               ; preds = %22
  store i1 false, ptr %7, align 1
  store i32 1, ptr %16, align 4
  br label %73

26:                                               ; preds = %22
  %27 = load ptr, ptr @ssi_10_saveptr, align 8
  %28 = getelementptr inbounds nuw %struct.evtype_info, ptr %27, i32 0, i32 2
  %29 = load ptr, ptr %28, align 8
  %30 = icmp ne ptr %29, null
  br i1 %30, label %31, label %35

31:                                               ; preds = %26
  %32 = load ptr, ptr @ssi_10_saveptr, align 8
  %33 = getelementptr inbounds nuw %struct.evtype_info, ptr %32, i32 0, i32 2
  %34 = load ptr, ptr %33, align 8
  br label %36

35:                                               ; preds = %26
  br label %36

36:                                               ; preds = %35, %31
  %37 = phi ptr [ %34, %31 ], [ @et_empty, %35 ]
  store ptr %37, ptr %15, align 8
  %38 = load ptr, ptr %8, align 8
  %39 = load ptr, ptr %9, align 8
  %40 = load i32, ptr @ett_ipmi_se_evt_evd_byte3, align 4
  %41 = call ptr @proto_tree_add_subtree(ptr noundef %38, ptr noundef %39, i32 noundef 0, i32 noundef 1, i32 noundef %40, ptr noundef null, ptr noundef @.str.906)
  store ptr %41, ptr %14, align 8
  %42 = load ptr, ptr %14, align 8
  %43 = load i32, ptr @hf_ipmi_se_10_logging_disable, align 4
  %44 = load ptr, ptr %9, align 8
  %45 = call ptr @proto_tree_add_item(ptr noundef %42, i32 noundef %43, ptr noundef %44, i32 noundef 0, i32 noundef 1, i32 noundef 0)
  %46 = load ptr, ptr %14, align 8
  %47 = load i32, ptr @hf_ipmi_se_10_event, align 4
  %48 = load ptr, ptr %9, align 8
  %49 = call ptr @proto_tree_add_item(ptr noundef %46, i32 noundef %47, ptr noundef %48, i32 noundef 0, i32 noundef 1, i32 noundef 0)
  %50 = load i32, ptr %13, align 4
  %51 = and i32 %50, 15
  store i32 %51, ptr %13, align 4
  %52 = load ptr, ptr %14, align 8
  %53 = load i32, ptr @hf_ipmi_se_10_event_offset, align 4
  %54 = load ptr, ptr %9, align 8
  %55 = load i32, ptr %13, align 4
  %56 = load i32, ptr %13, align 4
  %57 = load ptr, ptr %15, align 8
  %58 = call ptr @val_to_str_const(i32 noundef %56, ptr noundef %57, ptr noundef @.str.649)
  %59 = load i32, ptr %13, align 4
  %60 = call ptr (ptr, i32, ptr, i32, i32, i32, ptr, ...) @proto_tree_add_uint_format_value(ptr noundef %52, i32 noundef %53, ptr noundef %54, i32 noundef 0, i32 noundef 1, i32 noundef %55, ptr noundef @.str.783, ptr noundef %58, i32 noundef %59)
  store i1 true, ptr %7, align 1
  store i32 1, ptr %16, align 4
  br label %73

61:                                               ; preds = %19, %6
  %62 = load i32, ptr %11, align 4
  %63 = icmp eq i32 %62, 3
  br i1 %63, label %64, label %72

64:                                               ; preds = %61
  %65 = load i32, ptr %12, align 4
  %66 = icmp eq i32 %65, 5
  br i1 %66, label %67, label %72

67:                                               ; preds = %64
  %68 = load ptr, ptr %8, align 8
  %69 = load i32, ptr @hf_ipmi_se_10_sel_filled, align 4
  %70 = load ptr, ptr %9, align 8
  %71 = call ptr @proto_tree_add_item(ptr noundef %68, i32 noundef %69, ptr noundef %70, i32 noundef 0, i32 noundef 1, i32 noundef -2147483648)
  store i1 true, ptr %7, align 1
  store i32 1, ptr %16, align 4
  br label %73

72:                                               ; preds = %64, %61
  store i1 false, ptr %7, align 1
  store i32 1, ptr %16, align 4
  br label %73

73:                                               ; preds = %72, %67, %36, %25
  call void @llvm.lifetime.end.p0(i64 8, ptr %15) #5
  call void @llvm.lifetime.end.p0(i64 8, ptr %14) #5
  %74 = load i1, ptr %7, align 1
  ret i1 %74
}