; Function Attrs: null_pointer_is_valid sspstrong uwtable
define internal noundef zeroext i1 @ssi_10_3(ptr noundef %0, ptr noundef %1, ptr readnone captures(none) %2, i32 noundef %3, i32 noundef %4, i32 noundef %5) #0 {
  %7 = icmp eq i32 %3, 3
  %8 = icmp eq i32 %4, 1
  %or.cond = and i1 %7, %8
  br i1 %or.cond, label %9, label %24

9:                                                ; preds = %6
  %10 = load ptr, ptr @ssi_10_saveptr, align 8
  %.not = icmp eq ptr %10, null
  br i1 %.not, label %29, label %11

11:                                               ; preds = %9
  %12 = getelementptr inbounds nuw i8, ptr %10, i64 16
  %13 = load ptr, ptr %12, align 8
  %.not24 = icmp eq ptr %13, null
  %spec.select = select i1 %.not24, ptr @et_empty, ptr %13
  %14 = load i32, ptr @ett_ipmi_se_evt_evd_byte3, align 4
  %15 = tail call ptr @proto_tree_add_subtree(ptr noundef %0, ptr noundef %1, i32 noundef 0, i32 noundef 1, i32 noundef %14, ptr noundef null, ptr noundef nonnull @.str.906)
  %16 = load i32, ptr @hf_ipmi_se_10_logging_disable, align 4
  %17 = tail call ptr @proto_tree_add_item(ptr noundef %15, i32 noundef %16, ptr noundef %1, i32 noundef 0, i32 noundef 1, i32 noundef 0)
  %18 = load i32, ptr @hf_ipmi_se_10_event, align 4
  %19 = tail call ptr @proto_tree_add_item(ptr noundef %15, i32 noundef %18, ptr noundef %1, i32 noundef 0, i32 noundef 1, i32 noundef 0)
  %20 = and i32 %5, 15
  %21 = load i32, ptr @hf_ipmi_se_10_event_offset, align 4
  %22 = tail call ptr @val_to_str_const(i32 noundef %20, ptr noundef nonnull %spec.select, ptr noundef nonnull @.str.649)
  %23 = tail call ptr (ptr, i32, ptr, i32, i32, i32, ptr, ...) @proto_tree_add_uint_format_value(ptr noundef %15, i32 noundef %21, ptr noundef %1, i32 noundef 0, i32 noundef 1, i32 noundef %20, ptr noundef nonnull @.str.783, ptr noundef %22, i32 noundef %20)
  br label %29

24:                                               ; preds = %6
  %25 = icmp eq i32 %4, 5
  %or.cond3 = and i1 %7, %25
  br i1 %or.cond3, label %26, label %29

26:                                               ; preds = %24
  %27 = load i32, ptr @hf_ipmi_se_10_sel_filled, align 4
  %28 = tail call ptr @proto_tree_add_item(ptr noundef %0, i32 noundef %27, ptr noundef %1, i32 noundef 0, i32 noundef 1, i32 noundef -2147483648)
  br label %29

29:                                               ; preds = %24, %9, %26, %11
  %.0 = phi i1 [ true, %11 ], [ true, %26 ], [ false, %9 ], [ false, %24 ]
  ret i1 %.0
}